; ModuleID = 'source-C-CXX/56/70.c'
source_filename = "source-C-CXX/56/70.c"
target datalayout = "e-m:e-p270:32:32-p271:32:32-p272:64:64-i64:64-f80:128-n8:16:32:64-S128"
target triple = "x86_64-pc-linux-gnu"

@.str = private unnamed_addr constant [3 x i8] c"%d\00", align 1
@.str.1 = private unnamed_addr constant [3 x i8] c"%s\00", align 1

; Function Attrs: mustprogress nofree nounwind sspstrong uwtable willreturn
define dso_local void @delend(i8* nocapture %0) local_unnamed_addr #0 {
  %2 = tail call i64 @strlen(i8* noundef nonnull dereferenceable(1) %0) #7
  %3 = shl i64 %2, 32
  %4 = ashr exact i64 %3, 32
  %5 = add nsw i64 %4, -1
  %6 = getelementptr inbounds i8, i8* %0, i64 %5
  %7 = load i8, i8* %6, align 1, !tbaa !5
  %8 = sext i8 %7 to i32
  switch i32 %8, label %15 [
    i32 114, label %11
    i32 121, label %11
    i32 103, label %9
  ]

9:                                                ; preds = %1
  store i8 0, i8* %6, align 1, !tbaa !5
  %10 = getelementptr inbounds i8, i8* %6, i64 -1
  br label %11

11:                                               ; preds = %1, %1, %9
  %12 = phi i8* [ %10, %9 ], [ %6, %1 ], [ %6, %1 ]
  %13 = phi i64 [ -2, %9 ], [ -1, %1 ], [ -1, %1 ]
  store i8 0, i8* %12, align 1, !tbaa !5
  %14 = getelementptr inbounds i8, i8* %6, i64 %13
  store i8 0, i8* %14, align 1, !tbaa !5
  br label %15

15:                                               ; preds = %11, %1
  ret void
}

; Function Attrs: argmemonly mustprogress nofree nosync nounwind willreturn
declare void @llvm.lifetime.start.p0i8(i64 immarg, i8* nocapture) #1

; Function Attrs: argmemonly mustprogress nofree nounwind readonly willreturn
declare i64 @strlen(i8* nocapture) local_unnamed_addr #2

; Function Attrs: argmemonly mustprogress nofree nosync nounwind willreturn
declare void @llvm.lifetime.end.p0i8(i64 immarg, i8* nocapture) #1

; Function Attrs: nofree nounwind sspstrong uwtable
define dso_local i32 @main() local_unnamed_addr #3 {
  %1 = alloca i32, align 4
  %2 = alloca [50 x i8], align 16
  %3 = alloca [50 x [50 x i8]], align 16
  %4 = bitcast i32* %1 to i8*
  call void @llvm.lifetime.start.p0i8(i64 4, i8* nonnull %4) #8
  %5 = getelementptr inbounds [50 x i8], [50 x i8]* %2, i64 0, i64 0
  call void @llvm.lifetime.start.p0i8(i64 50, i8* nonnull %5) #8
  %6 = getelementptr inbounds [50 x [50 x i8]], [50 x [50 x i8]]* %3, i64 0, i64 0, i64 0
  call void @llvm.lifetime.start.p0i8(i64 2500, i8* nonnull %6) #8
  %7 = call i32 (i8*, ...) @__isoc99_scanf(i8* getelementptr inbounds ([3 x i8], [3 x i8]* @.str, i64 0, i64 0), i32* nonnull %1)
  %8 = load i32, i32* %1, align 4, !tbaa !8
  %9 = icmp sgt i32 %8, 0
  br i1 %9, label %12, label %44

10:                                               ; preds = %28
  %11 = icmp slt i32 %32, 2
  br i1 %11, label %44, label %35

12:                                               ; preds = %0, %28
  %13 = phi i64 [ %31, %28 ], [ 0, %0 ]
  %14 = call i32 (i8*, ...) @__isoc99_scanf(i8* getelementptr inbounds ([3 x i8], [3 x i8]* @.str.1, i64 0, i64 0), i8* nonnull %5)
  %15 = call i64 @strlen(i8* noundef nonnull dereferenceable(1) %5) #7
  %16 = shl i64 %15, 32
  %17 = ashr exact i64 %16, 32
  %18 = add nsw i64 %17, -1
  %19 = getelementptr inbounds [50 x i8], [50 x i8]* %2, i64 0, i64 %18
  %20 = load i8, i8* %19, align 1, !tbaa !5
  %21 = sext i8 %20 to i32
  switch i32 %21, label %28 [
    i32 114, label %24
    i32 121, label %24
    i32 103, label %22
  ]

22:                                               ; preds = %12
  store i8 0, i8* %19, align 1, !tbaa !5
  %23 = getelementptr inbounds i8, i8* %19, i64 -1
  br label %24

24:                                               ; preds = %22, %12, %12
  %25 = phi i8* [ %23, %22 ], [ %19, %12 ], [ %19, %12 ]
  %26 = phi i64 [ -2, %22 ], [ -1, %12 ], [ -1, %12 ]
  store i8 0, i8* %25, align 1, !tbaa !5
  %27 = getelementptr inbounds i8, i8* %19, i64 %26
  store i8 0, i8* %27, align 1, !tbaa !5
  br label %28

28:                                               ; preds = %12, %24
  %29 = getelementptr inbounds [50 x [50 x i8]], [50 x [50 x i8]]* %3, i64 0, i64 %13, i64 0
  %30 = call i8* @strcpy(i8* noundef nonnull %29, i8* noundef nonnull %5) #8
  %31 = add nuw nsw i64 %13, 1
  %32 = load i32, i32* %1, align 4, !tbaa !8
  %33 = sext i32 %32 to i64
  %34 = icmp slt i64 %31, %33
  br i1 %34, label %12, label %10, !llvm.loop !10

35:                                               ; preds = %10, %35
  %36 = phi i64 [ %39, %35 ], [ 0, %10 ]
  %37 = getelementptr inbounds [50 x [50 x i8]], [50 x [50 x i8]]* %3, i64 0, i64 %36, i64 0
  %38 = call i32 @puts(i8* nonnull %37)
  %39 = add nuw nsw i64 %36, 1
  %40 = load i32, i32* %1, align 4, !tbaa !8
  %41 = add nsw i32 %40, -2
  %42 = sext i32 %41 to i64
  %43 = icmp slt i64 %36, %42
  br i1 %43, label %35, label %44, !llvm.loop !12

44:                                               ; preds = %35, %0, %10
  %45 = phi i32 [ %32, %10 ], [ %8, %0 ], [ %40, %35 ]
  %46 = add nsw i32 %45, -1
  %47 = sext i32 %46 to i64
  %48 = getelementptr inbounds [50 x [50 x i8]], [50 x [50 x i8]]* %3, i64 0, i64 %47, i64 0
  %49 = call i32 @puts(i8* nonnull %48)
  call void @llvm.lifetime.end.p0i8(i64 2500, i8* nonnull %6) #8
  call void @llvm.lifetime.end.p0i8(i64 50, i8* nonnull %5) #8
  call void @llvm.lifetime.end.p0i8(i64 4, i8* nonnull %4) #8
  ret i32 0
}

; Function Attrs: nofree nounwind
declare noundef i32 @__isoc99_scanf(i8* nocapture noundef readonly, ...) local_unnamed_addr #4

; Function Attrs: argmemonly mustprogress nofree nounwind willreturn
declare i8* @strcpy(i8* noalias returned writeonly, i8* noalias nocapture readonly) local_unnamed_addr #5

; Function Attrs: nofree nounwind
declare noundef i32 @puts(i8* nocapture noundef readonly) local_unnamed_addr #6


!llvm.module.flags = !{!0, !1, !2, !3}
!llvm.ident = !{!4}

!0 = !{i32 1, !"wchar_size", i32 4}
!1 = !{i32 7, !"PIC Level", i32 2}
!2 = !{i32 7, !"PIE Level", i32 2}
!3 = !{i32 7, !"uwtable", i32 1}
!4 = !{!"clang version 13.0.0"}
!5 = !{!6, !6, i64 0}
!6 = !{!"omnipotent char", !7, i64 0}
!7 = !{!"Simple C/C++ TBAA"}
!8 = !{!9, !9, i64 0}
!9 = !{!"int", !6, i64 0}
!10 = distinct !{!10, !11}
!11 = !{!"llvm.loop.mustprogress"}
!12 = distinct !{!12, !11}
